target datalayout = "e-m:e-p270:32:32-p271:32:32-p272:64:64-i64:64-i128:128-f80:128-n8:16:32:64-S128"
target triple = "x86_64-pc-linux-gnu"

%struct.b2WorldId = type { i16, i16 }
%struct.b2JointId = type { i32, i16, i16 }
%struct.b2BodyId = type { i32, i16, i16 }
%struct.b2AABB = type { %struct.b2Vec2, %struct.b2Vec2 }
%struct.b2Vec2 = type { float, float }
%struct.b2Profile = type { float, float, float, float, float, float, float, float, float, float, float, float, float, float, float, float, float, float, float, float, float, float }
%class.Sample = type { ptr, ptr, ptr, ptr, i32, i32, %struct.b2BodyId, i32, %struct.b2WorldId, %struct.b2JointId, i32, i32, %struct.b2Profile, %struct.b2Profile }
%struct.QueryContext = type { %struct.b2Vec2, %struct.b2BodyId }
%struct.b2QueryFilter = type { i64, i64 }
%struct.b2TreeStats = type { i32, i32 }
%struct.b2BodyDef = type { i32, %struct.b2Vec2, %struct.b2Rot, %struct.b2Vec2, float, float, float, float, float, ptr, ptr, i8, i8, i8, i8, i8, i8, i32 }
%struct.b2Rot = type { float, float }
%struct.b2MouseJointDef = type { %struct.b2BodyId, %struct.b2BodyId, %struct.b2Vec2, float, float, float, i8, ptr, i32 }

@_ZL13b2_nullBodyId = internal constant %struct.b2BodyId zeroinitializer, align 4
@__const._ZN6Sample9MouseDownE6b2Vec2ii.d = private unnamed_addr constant %struct.b2Vec2 { float 0x3F50624DE0000000, float 0x3F50624DE0000000 }, align 4

; Function Attrs: inlinehint mustprogress nounwind uwtable
define linkonce_odr dso_local <2 x float> @_Z5b2Add6b2Vec2S_(<2 x float> %0, <2 x float> %1) #13 comdat {
  %3 = alloca %struct.b2Vec2, align 4
  %4 = alloca %struct.b2Vec2, align 4
  %5 = alloca %struct.b2Vec2, align 4
  store <2 x float> %0, ptr %4, align 4
  store <2 x float> %1, ptr %5, align 4
  %6 = getelementptr inbounds nuw %struct.b2Vec2, ptr %3, i32 0, i32 0
  %7 = getelementptr inbounds nuw %struct.b2Vec2, ptr %4, i32 0, i32 0
  %8 = load float, ptr %7, align 4, !tbaa !85
  %9 = getelementptr inbounds nuw %struct.b2Vec2, ptr %5, i32 0, i32 0
  %10 = load float, ptr %9, align 4, !tbaa !85
  %11 = fadd float %8, %10
  store float %11, ptr %6, align 4, !tbaa !85
  %12 = getelementptr inbounds nuw %struct.b2Vec2, ptr %3, i32 0, i32 1
  %13 = getelementptr inbounds nuw %struct.b2Vec2, ptr %4, i32 0, i32 1
  %14 = load float, ptr %13, align 4, !tbaa !86
  %15 = getelementptr inbounds nuw %struct.b2Vec2, ptr %5, i32 0, i32 1
  %16 = load float, ptr %15, align 4, !tbaa !86
  %17 = fadd float %14, %16
  store float %17, ptr %12, align 4, !tbaa !86
  %18 = load <2 x float>, ptr %3, align 4
  ret <2 x float> %18
}

; Function Attrs: inlinehint mustprogress nounwind uwtable
define linkonce_odr dso_local <2 x float> @_Z5b2Sub6b2Vec2S_(<2 x float> %0, <2 x float> %1) #13 comdat {
  %3 = alloca %struct.b2Vec2, align 4
  %4 = alloca %struct.b2Vec2, align 4
  %5 = alloca %struct.b2Vec2, align 4
  store <2 x float> %0, ptr %4, align 4
  store <2 x float> %1, ptr %5, align 4
  %6 = getelementptr inbounds nuw %struct.b2Vec2, ptr %3, i32 0, i32 0
  %7 = getelementptr inbounds nuw %struct.b2Vec2, ptr %4, i32 0, i32 0
  %8 = load float, ptr %7, align 4, !tbaa !85
  %9 = getelementptr inbounds nuw %struct.b2Vec2, ptr %5, i32 0, i32 0
  %10 = load float, ptr %9, align 4, !tbaa !85
  %11 = fsub float %8, %10
  store float %11, ptr %6, align 4, !tbaa !85
  %12 = getelementptr inbounds nuw %struct.b2Vec2, ptr %3, i32 0, i32 1
  %13 = getelementptr inbounds nuw %struct.b2Vec2, ptr %4, i32 0, i32 1
  %14 = load float, ptr %13, align 4, !tbaa !86
  %15 = getelementptr inbounds nuw %struct.b2Vec2, ptr %5, i32 0, i32 1
  %16 = load float, ptr %15, align 4, !tbaa !86
  %17 = fsub float %14, %16
  store float %17, ptr %12, align 4, !tbaa !86
  %18 = load <2 x float>, ptr %3, align 4
  ret <2 x float> %18
}

; Function Attrs: mustprogress uwtable
define dso_local void @_ZN6Sample9MouseDownE6b2Vec2ii(ptr noundef nonnull align 8 dereferenceable(248) %0, <2 x float> %1, i32 noundef %2, i32 noundef %3) unnamed_addr #10 align 2 {
  %5 = alloca %struct.b2Vec2, align 4
  %6 = alloca ptr, align 8
  %7 = alloca i32, align 4
  %8 = alloca i32, align 4
  %9 = alloca %struct.b2AABB, align 4
  %10 = alloca %struct.b2Vec2, align 4
  %11 = alloca %struct.b2Vec2, align 4
  %12 = alloca %struct.b2Vec2, align 4
  %13 = alloca %struct.b2Vec2, align 4
  %14 = alloca %struct.b2Vec2, align 4
  %15 = alloca %struct.b2Vec2, align 4
  %16 = alloca %struct.b2Vec2, align 4
  %17 = alloca %struct.QueryContext, align 4
  %18 = alloca %struct.b2WorldId, align 2
  %19 = alloca %struct.b2AABB, align 4
  %20 = alloca %struct.b2QueryFilter, align 8
  %21 = alloca %struct.b2TreeStats, align 4
  %22 = alloca %struct.b2BodyDef, align 8
  %23 = alloca %struct.b2BodyId, align 4
  %24 = alloca %struct.b2WorldId, align 2
  %25 = alloca %struct.b2MouseJointDef, align 8
  %26 = alloca %struct.b2BodyId, align 4
  %27 = alloca %struct.b2JointId, align 4
  %28 = alloca %struct.b2WorldId, align 2
  %29 = alloca %struct.b2BodyId, align 4
  store <2 x float> %1, ptr %5, align 4
  store ptr %0, ptr %6, align 8, !tbaa !15
  store i32 %2, ptr %7, align 4, !tbaa !11
  store i32 %3, ptr %8, align 4, !tbaa !11
  %30 = load ptr, ptr %6, align 8
  %31 = getelementptr inbounds nuw %class.Sample, ptr %30, i32 0, i32 9
  %32 = getelementptr inbounds nuw %struct.b2JointId, ptr %31, i32 0, i32 0
  %33 = load i32, ptr %32, align 8, !tbaa !77
  %34 = icmp ne i32 %33, 0
  br i1 %34, label %35, label %36

35:                                               ; preds = %4
  br label %94

36:                                               ; preds = %4
  %37 = load i32, ptr %7, align 4, !tbaa !11
  %38 = icmp eq i32 %37, 0
  br i1 %38, label %39, label %94

39:                                               ; preds = %36
  call void @llvm.lifetime.start.p0(i64 16, ptr %9) #19
  call void @llvm.lifetime.start.p0(i64 8, ptr %10) #19
  call void @llvm.memcpy.p0.p0.i64(ptr align 4 %10, ptr align 4 @__const._ZN6Sample9MouseDownE6b2Vec2ii.d, i64 8, i1 false)
  call void @llvm.lifetime.start.p0(i64 8, ptr %11) #19
  call void @llvm.memcpy.p0.p0.i64(ptr align 4 %12, ptr align 4 %5, i64 8, i1 false), !tbaa.struct !66
  call void @llvm.memcpy.p0.p0.i64(ptr align 4 %13, ptr align 4 %10, i64 8, i1 false), !tbaa.struct !66
  %40 = load <2 x float>, ptr %12, align 4
  %41 = load <2 x float>, ptr %13, align 4
  %42 = call <2 x float> @_Z5b2Sub6b2Vec2S_(<2 x float> %40, <2 x float> %41)
  store <2 x float> %42, ptr %11, align 4
  %43 = getelementptr inbounds nuw %struct.b2AABB, ptr %9, i32 0, i32 0
  call void @llvm.memcpy.p0.p0.i64(ptr align 4 %43, ptr align 4 %11, i64 8, i1 false), !tbaa.struct !66
  call void @llvm.lifetime.end.p0(i64 8, ptr %11) #19
  call void @llvm.lifetime.start.p0(i64 8, ptr %14) #19
  call void @llvm.memcpy.p0.p0.i64(ptr align 4 %15, ptr align 4 %5, i64 8, i1 false), !tbaa.struct !66
  call void @llvm.memcpy.p0.p0.i64(ptr align 4 %16, ptr align 4 %10, i64 8, i1 false), !tbaa.struct !66
  %44 = load <2 x float>, ptr %15, align 4
  %45 = load <2 x float>, ptr %16, align 4
  %46 = call <2 x float> @_Z5b2Add6b2Vec2S_(<2 x float> %44, <2 x float> %45)
  store <2 x float> %46, ptr %14, align 4
  %47 = getelementptr inbounds nuw %struct.b2AABB, ptr %9, i32 0, i32 1
  call void @llvm.memcpy.p0.p0.i64(ptr align 4 %47, ptr align 4 %14, i64 8, i1 false), !tbaa.struct !66
  call void @llvm.lifetime.end.p0(i64 8, ptr %14) #19
  call void @llvm.lifetime.start.p0(i64 16, ptr %17) #19
  %48 = getelementptr inbounds nuw %struct.QueryContext, ptr %17, i32 0, i32 0
  call void @llvm.memcpy.p0.p0.i64(ptr align 4 %48, ptr align 4 %5, i64 8, i1 false), !tbaa.struct !66
  %49 = getelementptr inbounds nuw %struct.QueryContext, ptr %17, i32 0, i32 1
  call void @llvm.memcpy.p0.p0.i64(ptr align 4 %49, ptr align 4 @_ZL13b2_nullBodyId, i64 8, i1 false), !tbaa.struct !40
  %50 = getelementptr inbounds nuw %class.Sample, ptr %30, i32 0, i32 8
  call void @llvm.memcpy.p0.p0.i64(ptr align 2 %18, ptr align 4 %50, i64 4, i1 false), !tbaa.struct !36
  call void @llvm.memcpy.p0.p0.i64(ptr align 4 %19, ptr align 4 %9, i64 16, i1 false), !tbaa.struct !78
  %51 = call { i64, i64 } @b2DefaultQueryFilter()
  %52 = getelementptr inbounds nuw { i64, i64 }, ptr %20, i32 0, i32 0
  %53 = extractvalue { i64, i64 } %51, 0
  store i64 %53, ptr %52, align 8
  %54 = getelementptr inbounds nuw { i64, i64 }, ptr %20, i32 0, i32 1
  %55 = extractvalue { i64, i64 } %51, 1
  store i64 %55, ptr %54, align 8
  %56 = load i32, ptr %18, align 2
  %57 = getelementptr inbounds nuw { <2 x float>, <2 x float> }, ptr %19, i32 0, i32 0
  %58 = load <2 x float>, ptr %57, align 4
  %59 = getelementptr inbounds nuw { <2 x float>, <2 x float> }, ptr %19, i32 0, i32 1
  %60 = load <2 x float>, ptr %59, align 4
  %61 = getelementptr inbounds nuw { i64, i64 }, ptr %20, i32 0, i32 0
  %62 = load i64, ptr %61, align 8
  %63 = getelementptr inbounds nuw { i64, i64 }, ptr %20, i32 0, i32 1
  %64 = load i64, ptr %63, align 8
  %65 = call i64 @b2World_OverlapAABB(i32 %56, <2 x float> %58, <2 x float> %60, i64 %62, i64 %64, ptr noundef @_Z13QueryCallback9b2ShapeIdPv, ptr noundef %17)
  store i64 %65, ptr %21, align 4
  %66 = getelementptr inbounds nuw %struct.QueryContext, ptr %17, i32 0, i32 1
  %67 = getelementptr inbounds nuw %struct.b2BodyId, ptr %66, i32 0, i32 0
  %68 = load i32, ptr %67, align 4, !tbaa !79
  %69 = icmp ne i32 %68, 0
  br i1 %69, label %70, label %93

70:                                               ; preds = %39
  call void @llvm.lifetime.start.p0(i64 80, ptr %22) #19
  call void @b2DefaultBodyDef(ptr dead_on_unwind writable sret(%struct.b2BodyDef) align 8 %22)
  call void @llvm.lifetime.start.p0(i64 8, ptr %23) #19
  %71 = getelementptr inbounds nuw %class.Sample, ptr %30, i32 0, i32 8
  call void @llvm.memcpy.p0.p0.i64(ptr align 2 %24, ptr align 4 %71, i64 4, i1 false), !tbaa.struct !36
  %72 = load i32, ptr %24, align 2
  %73 = call i64 @b2CreateBody(i32 %72, ptr noundef %22)
  store i64 %73, ptr %23, align 4
  %74 = getelementptr inbounds nuw %class.Sample, ptr %30, i32 0, i32 6
  call void @llvm.memcpy.p0.p0.i64(ptr align 8 %74, ptr align 4 %23, i64 8, i1 false), !tbaa.struct !40
  call void @llvm.lifetime.end.p0(i64 8, ptr %23) #19
  call void @llvm.lifetime.start.p0(i64 56, ptr %25) #19
  call void @b2DefaultMouseJointDef(ptr dead_on_unwind writable sret(%struct.b2MouseJointDef) align 8 %25)
  %75 = getelementptr inbounds nuw %class.Sample, ptr %30, i32 0, i32 6
  %76 = getelementptr inbounds nuw %struct.b2MouseJointDef, ptr %25, i32 0, i32 0
  call void @llvm.memcpy.p0.p0.i64(ptr align 8 %76, ptr align 8 %75, i64 8, i1 false), !tbaa.struct !40
  %77 = getelementptr inbounds nuw %struct.QueryContext, ptr %17, i32 0, i32 1
  %78 = getelementptr inbounds nuw %struct.b2MouseJointDef, ptr %25, i32 0, i32 1
  call void @llvm.memcpy.p0.p0.i64(ptr align 8 %78, ptr align 4 %77, i64 8, i1 false), !tbaa.struct !40
  %79 = getelementptr inbounds nuw %struct.b2MouseJointDef, ptr %25, i32 0, i32 2
  call void @llvm.memcpy.p0.p0.i64(ptr align 8 %79, ptr align 4 %5, i64 8, i1 false), !tbaa.struct !66
  %80 = getelementptr inbounds nuw %struct.b2MouseJointDef, ptr %25, i32 0, i32 3
  store float 5.000000e+00, ptr %80, align 8, !tbaa !81
  %81 = getelementptr inbounds nuw %struct.b2MouseJointDef, ptr %25, i32 0, i32 4
  store float 0x3FE6666660000000, ptr %81, align 4, !tbaa !83
  %82 = getelementptr inbounds nuw %struct.QueryContext, ptr %17, i32 0, i32 1
  call void @llvm.memcpy.p0.p0.i64(ptr align 4 %26, ptr align 4 %82, i64 8, i1 false), !tbaa.struct !40
  %83 = load i64, ptr %26, align 4
  %84 = call float @b2Body_GetMass(i64 %83)
  %85 = fmul float 1.000000e+03, %84
  %86 = getelementptr inbounds nuw %struct.b2MouseJointDef, ptr %25, i32 0, i32 5
  store float %85, ptr %86, align 8, !tbaa !84
  call void @llvm.lifetime.start.p0(i64 8, ptr %27) #19
  %87 = getelementptr inbounds nuw %class.Sample, ptr %30, i32 0, i32 8
  call void @llvm.memcpy.p0.p0.i64(ptr align 2 %28, ptr align 4 %87, i64 4, i1 false), !tbaa.struct !36
  %88 = load i32, ptr %28, align 2
  %89 = call i64 @b2CreateMouseJoint(i32 %88, ptr noundef %25)
  store i64 %89, ptr %27, align 4
  %90 = getelementptr inbounds nuw %class.Sample, ptr %30, i32 0, i32 9
  call void @llvm.memcpy.p0.p0.i64(ptr align 8 %90, ptr align 4 %27, i64 8, i1 false), !tbaa.struct !40
  call void @llvm.lifetime.end.p0(i64 8, ptr %27) #19
  %91 = getelementptr inbounds nuw %struct.QueryContext, ptr %17, i32 0, i32 1
  call void @llvm.memcpy.p0.p0.i64(ptr align 4 %29, ptr align 4 %91, i64 8, i1 false), !tbaa.struct !40
  %92 = load i64, ptr %29, align 4
  call void @b2Body_SetAwake(i64 %92, i1 noundef zeroext true)
  call void @llvm.lifetime.end.p0(i64 56, ptr %25) #19
  call void @llvm.lifetime.end.p0(i64 80, ptr %22) #19
  br label %93

93:                                               ; preds = %70, %39
  call void @llvm.lifetime.end.p0(i64 16, ptr %17) #19
  call void @llvm.lifetime.end.p0(i64 8, ptr %10) #19
  call void @llvm.lifetime.end.p0(i64 16, ptr %9) #19
  br label %94

94:                                               ; preds = %35, %93, %36
  ret void
}