; Function Attrs: mustprogress uwtable
define dso_local void @_ZN6Sample9MouseDownE6b2Vec2ii(ptr noundef nonnull align 8 captures(none) dereferenceable(248) %0, <2 x float> %1, i32 noundef %2, i32 %3) unnamed_addr #5 align 2 {
  %5 = alloca %struct.QueryContext, align 8
  %6 = alloca %struct.b2BodyDef, align 8
  %7 = alloca %struct.b2MouseJointDef, align 8
  %8 = getelementptr inbounds nuw i8, ptr %0, i64 56
  %9 = load i32, ptr %8, align 8, !tbaa !61
  %10 = or i32 %9, %2
  %or.cond = icmp eq i32 %10, 0
  br i1 %or.cond, label %11, label %37

11:                                               ; preds = %4
  %.sroa.01.0.vec.extract.i = extractelement <2 x float> %1, i64 0
  %12 = fadd float %.sroa.01.0.vec.extract.i, 0xBF50624DE0000000
  %.sroa.02.0.vec.insert.i = insertelement <2 x float> poison, float %12, i64 0
  %.sroa.01.4.vec.extract.i = extractelement <2 x float> %1, i64 1
  %13 = fadd float %.sroa.01.4.vec.extract.i, 0xBF50624DE0000000
  %.sroa.02.4.vec.insert.i = insertelement <2 x float> %.sroa.02.0.vec.insert.i, float %13, i64 1
  %14 = fadd float %.sroa.01.0.vec.extract.i, 0x3F50624DE0000000
  %.sroa.02.0.vec.insert.i25 = insertelement <2 x float> poison, float %14, i64 0
  %15 = fadd float %.sroa.01.4.vec.extract.i, 0x3F50624DE0000000
  %.sroa.02.4.vec.insert.i27 = insertelement <2 x float> %.sroa.02.0.vec.insert.i25, float %15, i64 1
  call void @llvm.lifetime.start.p0(i64 16, ptr nonnull %5) #23
  store <2 x float> %1, ptr %5, align 8
  %16 = getelementptr inbounds nuw i8, ptr %5, i64 8
  store i64 0, ptr %16, align 8
  %17 = getelementptr inbounds nuw i8, ptr %0, i64 52
  %.sroa.011.0.copyload = load i32, ptr %17, align 4
  %18 = tail call { i64, i64 } @b2DefaultQueryFilter()
  %19 = extractvalue { i64, i64 } %18, 0
  %20 = extractvalue { i64, i64 } %18, 1
  %21 = call i64 @b2World_OverlapAABB(i32 %.sroa.011.0.copyload, <2 x float> %.sroa.02.4.vec.insert.i, <2 x float> %.sroa.02.4.vec.insert.i27, i64 %19, i64 %20, ptr noundef nonnull @_Z13QueryCallback9b2ShapeIdPv, ptr noundef nonnull %5)
  %22 = load i32, ptr %16, align 8, !tbaa !62
  %.not = icmp eq i32 %22, 0
  br i1 %.not, label %36, label %23

23:                                               ; preds = %11
  call void @llvm.lifetime.start.p0(i64 80, ptr nonnull %6) #23
  call void @b2DefaultBodyDef(ptr dead_on_unwind nonnull writable sret(%struct.b2BodyDef) align 8 %6)
  %.sroa.05.0.copyload = load i32, ptr %17, align 4
  %24 = call i64 @b2CreateBody(i32 %.sroa.05.0.copyload, ptr noundef nonnull %6)
  %25 = getelementptr inbounds nuw i8, ptr %0, i64 40
  store i64 %24, ptr %25, align 8
  call void @llvm.lifetime.start.p0(i64 56, ptr nonnull %7) #23
  call void @b2DefaultMouseJointDef(ptr dead_on_unwind nonnull writable sret(%struct.b2MouseJointDef) align 8 %7)
  %26 = load i64, ptr %25, align 8
  store i64 %26, ptr %7, align 8
  %27 = getelementptr inbounds nuw i8, ptr %7, i64 8
  %28 = load i64, ptr %16, align 8
  store i64 %28, ptr %27, align 8
  %29 = getelementptr inbounds nuw i8, ptr %7, i64 16
  store <2 x float> %1, ptr %29, align 8
  %30 = getelementptr inbounds nuw i8, ptr %7, i64 24
  store float 5.000000e+00, ptr %30, align 8, !tbaa !64
  %31 = getelementptr inbounds nuw i8, ptr %7, i64 28
  store float 0x3FE6666660000000, ptr %31, align 4, !tbaa !66
  %32 = call float @b2Body_GetMass(i64 %28)
  %33 = fmul float %32, 1.000000e+03
  %34 = getelementptr inbounds nuw i8, ptr %7, i64 32
  store float %33, ptr %34, align 8, !tbaa !67
  %.sroa.02.0.copyload = load i32, ptr %17, align 4
  %35 = call i64 @b2CreateMouseJoint(i32 %.sroa.02.0.copyload, ptr noundef nonnull %7)
  store i64 %35, ptr %8, align 8
  %.sroa.0.0.copyload = load i64, ptr %16, align 8
  call void @b2Body_SetAwake(i64 %.sroa.0.0.copyload, i1 noundef zeroext true)
  call void @llvm.lifetime.end.p0(i64 56, ptr nonnull %7) #23
  call void @llvm.lifetime.end.p0(i64 80, ptr nonnull %6) #23
  br label %36

36:                                               ; preds = %23, %11
  call void @llvm.lifetime.end.p0(i64 16, ptr nonnull %5) #23
  br label %37

37:                                               ; preds = %4, %36
  ret void
}